
_interrupt:
	MOVWF      R15+0
	SWAPF      STATUS+0, 0
	CLRF       STATUS+0
	MOVWF      ___saveSTATUS+0
	MOVF       PCLATH+0, 0
	MOVWF      ___savePCLATH+0
	CLRF       PCLATH+0

;1.c,27 :: 		interrupt()
;1.c,29 :: 		rr = UART1_Read();
	CALL       _UART1_Read+0
	MOVF       R0+0, 0
	MOVWF      _rr+0
	CLRF       _rr+1
;1.c,30 :: 		switch(rr)
	GOTO       L_interrupt0
;1.c,32 :: 		case '$':
L_interrupt2:
;1.c,35 :: 		v=1;
	MOVLW      1
	MOVWF      _v+0
;1.c,36 :: 		i=0;
	CLRF       _i+0
	CLRF       _i+1
;1.c,37 :: 		break;
	GOTO       L_interrupt1
;1.c,40 :: 		case 'G':
L_interrupt3:
;1.c,42 :: 		if(v<6)
	MOVLW      6
	SUBWF      _v+0, 0
	BTFSC      STATUS+0, 0
	GOTO       L_interrupt4
;1.c,44 :: 		v++;
	INCF       _v+0, 1
;1.c,45 :: 		break;
	GOTO       L_interrupt1
;1.c,46 :: 		}
L_interrupt4:
;1.c,48 :: 		case 'P':
L_interrupt5:
;1.c,50 :: 		if(v==2)
	MOVF       _v+0, 0
	XORLW      2
	BTFSS      STATUS+0, 2
	GOTO       L_interrupt6
;1.c,51 :: 		v=3;
	MOVLW      3
	MOVWF      _v+0
L_interrupt6:
;1.c,52 :: 		break;
	GOTO       L_interrupt1
;1.c,55 :: 		case 'A':
L_interrupt7:
;1.c,57 :: 		if(v==5)
	MOVF       _v+0, 0
	XORLW      5
	BTFSS      STATUS+0, 2
	GOTO       L_interrupt8
;1.c,58 :: 		v=6;
	MOVLW      6
	MOVWF      _v+0
L_interrupt8:
;1.c,59 :: 		break;
	GOTO       L_interrupt1
;1.c,61 :: 		case ',':
L_interrupt9:
;1.c,63 :: 		if(v==6&&GP<8)
	MOVF       _v+0, 0
	XORLW      6
	BTFSS      STATUS+0, 2
	GOTO       L_interrupt12
	MOVLW      8
	SUBWF      _GP+0, 0
	BTFSC      STATUS+0, 0
	GOTO       L_interrupt12
L__interrupt42:
;1.c,64 :: 		GP++;
	INCF       _GP+0, 1
L_interrupt12:
;1.c,65 :: 		break;
	GOTO       L_interrupt1
;1.c,67 :: 		}
L_interrupt0:
	MOVLW      0
	XORWF      _rr+1, 0
	BTFSS      STATUS+0, 2
	GOTO       L__interrupt44
	MOVLW      36
	XORWF      _rr+0, 0
L__interrupt44:
	BTFSC      STATUS+0, 2
	GOTO       L_interrupt2
	MOVLW      0
	XORWF      _rr+1, 0
	BTFSS      STATUS+0, 2
	GOTO       L__interrupt45
	MOVLW      71
	XORWF      _rr+0, 0
L__interrupt45:
	BTFSC      STATUS+0, 2
	GOTO       L_interrupt3
	MOVLW      0
	XORWF      _rr+1, 0
	BTFSS      STATUS+0, 2
	GOTO       L__interrupt46
	MOVLW      80
	XORWF      _rr+0, 0
L__interrupt46:
	BTFSC      STATUS+0, 2
	GOTO       L_interrupt5
	MOVLW      0
	XORWF      _rr+1, 0
	BTFSS      STATUS+0, 2
	GOTO       L__interrupt47
	MOVLW      65
	XORWF      _rr+0, 0
L__interrupt47:
	BTFSC      STATUS+0, 2
	GOTO       L_interrupt7
	MOVLW      0
	XORWF      _rr+1, 0
	BTFSS      STATUS+0, 2
	GOTO       L__interrupt48
	MOVLW      44
	XORWF      _rr+0, 0
L__interrupt48:
	BTFSC      STATUS+0, 2
	GOTO       L_interrupt9
L_interrupt1:
;1.c,68 :: 		if (v==6){
	MOVF       _v+0, 0
	XORLW      6
	BTFSS      STATUS+0, 2
	GOTO       L_interrupt13
;1.c,69 :: 		i++;
	INCF       _i+0, 1
	BTFSC      STATUS+0, 2
	INCF       _i+1, 1
;1.c,70 :: 		rec[i] = rr;
	MOVF       _i+0, 0
	ADDLW      _rec+0
	MOVWF      FSR
	MOVF       _rr+0, 0
	MOVWF      INDF+0
;1.c,71 :: 		}
L_interrupt13:
;1.c,72 :: 		}
L__interrupt43:
	MOVF       ___savePCLATH+0, 0
	MOVWF      PCLATH+0
	SWAPF      ___saveSTATUS+0, 0
	MOVWF      STATUS+0
	SWAPF      R15+0, 1
	SWAPF      R15+0, 0
	RETFIE
; end of _interrupt

_main:

;1.c,74 :: 		void main() {
;1.c,76 :: 		Lcd_Init();
	CALL       _Lcd_Init+0
;1.c,77 :: 		INTCON=0b11000000;
	MOVLW      192
	MOVWF      INTCON+0
;1.c,78 :: 		PIE1=0b00100100;
	MOVLW      36
	MOVWF      PIE1+0
;1.c,79 :: 		UART1_Init(9600);               // Initialize UART module at 9600 bps
	MOVLW      25
	MOVWF      SPBRG+0
	BSF        TXSTA+0, 2
	CALL       _UART1_Init+0
;1.c,80 :: 		Delay_ms(300);
	MOVLW      2
	MOVWF      R11+0
	MOVLW      134
	MOVWF      R12+0
	MOVLW      153
	MOVWF      R13+0
L_main14:
	DECFSZ     R13+0, 1
	GOTO       L_main14
	DECFSZ     R12+0, 1
	GOTO       L_main14
	DECFSZ     R11+0, 1
	GOTO       L_main14
;1.c,81 :: 		lcd_cmd(_LCD_CURSOR_OFF);
	MOVLW      12
	MOVWF      FARG_Lcd_Cmd_out_char+0
	CALL       _Lcd_Cmd+0
;1.c,82 :: 		trisc=0b10000000;
	MOVLW      128
	MOVWF      TRISC+0
;1.c,83 :: 		portc=255;
	MOVLW      255
	MOVWF      PORTC+0
;1.c,84 :: 		portc.f0=0;
	BCF        PORTC+0, 0
;1.c,85 :: 		portc.f2=0;
	BCF        PORTC+0, 2
;1.c,86 :: 		adcon1=2;
	MOVLW      2
	MOVWF      ADCON1+0
;1.c,87 :: 		trise=1;
	MOVLW      1
	MOVWF      TRISE+0
;1.c,88 :: 		for(;;){
L_main15:
;1.c,89 :: 		lcd_chr(1,1,rec[14]);
	MOVLW      1
	MOVWF      FARG_Lcd_Chr_row+0
	MOVLW      1
	MOVWF      FARG_Lcd_Chr_column+0
	MOVF       _rec+14, 0
	MOVWF      FARG_Lcd_Chr_out_char+0
	CALL       _Lcd_Chr+0
;1.c,90 :: 		for (r=15;r<23;r++){
	MOVLW      15
	MOVWF      main_r_L0+0
L_main18:
	MOVLW      23
	SUBWF      main_r_L0+0, 0
	BTFSC      STATUS+0, 0
	GOTO       L_main19
;1.c,91 :: 		lcd_chr_cp(rec[r]);
	MOVF       main_r_L0+0, 0
	ADDLW      _rec+0
	MOVWF      FSR
	MOVF       INDF+0, 0
	MOVWF      FARG_Lcd_Chr_CP_out_char+0
	CALL       _Lcd_Chr_CP+0
;1.c,90 :: 		for (r=15;r<23;r++){
	INCF       main_r_L0+0, 1
;1.c,92 :: 		}
	GOTO       L_main18
L_main19:
;1.c,94 :: 		lcd_chr(2,1,rec[26]);
	MOVLW      2
	MOVWF      FARG_Lcd_Chr_row+0
	MOVLW      1
	MOVWF      FARG_Lcd_Chr_column+0
	MOVF       _rec+26, 0
	MOVWF      FARG_Lcd_Chr_out_char+0
	CALL       _Lcd_Chr+0
;1.c,95 :: 		for (r=27;r<36;r++){
	MOVLW      27
	MOVWF      main_r_L0+0
L_main21:
	MOVLW      36
	SUBWF      main_r_L0+0, 0
	BTFSC      STATUS+0, 0
	GOTO       L_main22
;1.c,96 :: 		lcd_chr_cp(rec[r]);
	MOVF       main_r_L0+0, 0
	ADDLW      _rec+0
	MOVWF      FSR
	MOVF       INDF+0, 0
	MOVWF      FARG_Lcd_Chr_CP_out_char+0
	CALL       _Lcd_Chr_CP+0
;1.c,95 :: 		for (r=27;r<36;r++){
	INCF       main_r_L0+0, 1
;1.c,97 :: 		}
	GOTO       L_main21
L_main22:
;1.c,98 :: 		if(porte.f0==0)
	BTFSC      PORTE+0, 0
	GOTO       L_main24
;1.c,100 :: 		for(m=0;m<=9;m++)
	CLRF       _m+0
	CLRF       _m+1
L_main25:
	MOVLW      128
	MOVWF      R0+0
	MOVLW      128
	XORWF      _m+1, 0
	SUBWF      R0+0, 0
	BTFSS      STATUS+0, 2
	GOTO       L__main49
	MOVF       _m+0, 0
	SUBLW      9
L__main49:
	BTFSS      STATUS+0, 0
	GOTO       L_main26
;1.c,102 :: 		UART1_write(text_mode[m]) ;
	MOVF       _m+0, 0
	ADDLW      _text_mode+0
	MOVWF      FSR
	MOVF       INDF+0, 0
	MOVWF      FARG_UART1_Write_data_+0
	CALL       _UART1_Write+0
;1.c,103 :: 		delay_ms(200) ;
	MOVLW      2
	MOVWF      R11+0
	MOVLW      4
	MOVWF      R12+0
	MOVLW      186
	MOVWF      R13+0
L_main28:
	DECFSZ     R13+0, 1
	GOTO       L_main28
	DECFSZ     R12+0, 1
	GOTO       L_main28
	DECFSZ     R11+0, 1
	GOTO       L_main28
	NOP
;1.c,100 :: 		for(m=0;m<=9;m++)
	INCF       _m+0, 1
	BTFSC      STATUS+0, 2
	INCF       _m+1, 1
;1.c,104 :: 		}
	GOTO       L_main25
L_main26:
;1.c,105 :: 		for(m=0;m<=21;m++)
	CLRF       _m+0
	CLRF       _m+1
L_main29:
	MOVLW      128
	MOVWF      R0+0
	MOVLW      128
	XORWF      _m+1, 0
	SUBWF      R0+0, 0
	BTFSS      STATUS+0, 2
	GOTO       L__main50
	MOVF       _m+0, 0
	SUBLW      21
L__main50:
	BTFSS      STATUS+0, 0
	GOTO       L_main30
;1.c,107 :: 		UART1_write(phone_number[m]) ;
	MOVF       _m+0, 0
	ADDLW      _phone_number+0
	MOVWF      FSR
	MOVF       INDF+0, 0
	MOVWF      FARG_UART1_Write_data_+0
	CALL       _UART1_Write+0
;1.c,108 :: 		delay_ms(200) ;
	MOVLW      2
	MOVWF      R11+0
	MOVLW      4
	MOVWF      R12+0
	MOVLW      186
	MOVWF      R13+0
L_main32:
	DECFSZ     R13+0, 1
	GOTO       L_main32
	DECFSZ     R12+0, 1
	GOTO       L_main32
	DECFSZ     R11+0, 1
	GOTO       L_main32
	NOP
;1.c,105 :: 		for(m=0;m<=21;m++)
	INCF       _m+0, 1
	BTFSC      STATUS+0, 2
	INCF       _m+1, 1
;1.c,109 :: 		}
	GOTO       L_main29
L_main30:
;1.c,110 :: 		for (r=14;r<23;r++){
	MOVLW      14
	MOVWF      main_r_L0+0
L_main33:
	MOVLW      23
	SUBWF      main_r_L0+0, 0
	BTFSC      STATUS+0, 0
	GOTO       L_main34
;1.c,111 :: 		UART1_WRITE(rec[r]);
	MOVF       main_r_L0+0, 0
	ADDLW      _rec+0
	MOVWF      FSR
	MOVF       INDF+0, 0
	MOVWF      FARG_UART1_Write_data_+0
	CALL       _UART1_Write+0
;1.c,112 :: 		delay_ms(200);}
	MOVLW      2
	MOVWF      R11+0
	MOVLW      4
	MOVWF      R12+0
	MOVLW      186
	MOVWF      R13+0
L_main36:
	DECFSZ     R13+0, 1
	GOTO       L_main36
	DECFSZ     R12+0, 1
	GOTO       L_main36
	DECFSZ     R11+0, 1
	GOTO       L_main36
	NOP
;1.c,110 :: 		for (r=14;r<23;r++){
	INCF       main_r_L0+0, 1
;1.c,112 :: 		delay_ms(200);}
	GOTO       L_main33
L_main34:
;1.c,113 :: 		for (r=26;r<36;r++){
	MOVLW      26
	MOVWF      main_r_L0+0
L_main37:
	MOVLW      36
	SUBWF      main_r_L0+0, 0
	BTFSC      STATUS+0, 0
	GOTO       L_main38
;1.c,114 :: 		UART1_WRITE(rec[r]);
	MOVF       main_r_L0+0, 0
	ADDLW      _rec+0
	MOVWF      FSR
	MOVF       INDF+0, 0
	MOVWF      FARG_UART1_Write_data_+0
	CALL       _UART1_Write+0
;1.c,115 :: 		delay_ms(200);}
	MOVLW      2
	MOVWF      R11+0
	MOVLW      4
	MOVWF      R12+0
	MOVLW      186
	MOVWF      R13+0
L_main40:
	DECFSZ     R13+0, 1
	GOTO       L_main40
	DECFSZ     R12+0, 1
	GOTO       L_main40
	DECFSZ     R11+0, 1
	GOTO       L_main40
	NOP
;1.c,113 :: 		for (r=26;r<36;r++){
	INCF       main_r_L0+0, 1
;1.c,115 :: 		delay_ms(200);}
	GOTO       L_main37
L_main38:
;1.c,116 :: 		delay_ms(300);
	MOVLW      2
	MOVWF      R11+0
	MOVLW      134
	MOVWF      R12+0
	MOVLW      153
	MOVWF      R13+0
L_main41:
	DECFSZ     R13+0, 1
	GOTO       L_main41
	DECFSZ     R12+0, 1
	GOTO       L_main41
	DECFSZ     R11+0, 1
	GOTO       L_main41
;1.c,117 :: 		UART1_WRITE(26);
	MOVLW      26
	MOVWF      FARG_UART1_Write_data_+0
	CALL       _UART1_Write+0
;1.c,119 :: 		}          }      }
L_main24:
	GOTO       L_main15
	GOTO       $+0
; end of _main
